target datalayout = "e-m:e-p270:32:32-p271:32:32-p272:64:64-i64:64-i128:128-f80:128-n8:16:32:64-S128"
target triple = "x86_64-pc-linux-gnu"

%struct.H5O_loc_t = type { ptr, i64, i8 }
%struct.H5A_t = type { %struct.H5O_shared_t, %struct.H5O_loc_t, i8, %struct.H5G_name_t, ptr }
%struct.H5O_shared_t = type { i32, ptr, i32, %union.anon }
%union.anon = type { %struct.H5O_mesg_loc_t }
%struct.H5O_mesg_loc_t = type { i32, i64 }
%struct.H5G_name_t = type { ptr, ptr, i32 }

@.str = private unnamed_addr constant [106 x i8] c"generated/home/dtcxzyw/WorkSpace/Projects/compilers/llvm-opt-benchmark/bench/hdf5/hdf5/src/H5Oattribute.c\00", align 1
@H5E_ATTR_g = external global i64, align 8
@H5E_CANTINIT_g = external global i64, align 8
@H5E_CANTGET_g = external global i64, align 8
@H5E_BADMESG_g = external global i64, align 8
@H5E_OHDR_g = external global i64, align 8
@.str.12 = private unnamed_addr constant [40 x i8] c"can't retrieve shared message ref count\00", align 1
@H5E_CANTCOPY_g = external global i64, align 8
@__func__.H5O__attr_update_shared = private unnamed_addr constant [24 x i8] c"H5O__attr_update_shared\00", align 1
@.str.27 = private unnamed_addr constant [25 x i8] c"can't get shared message\00", align 1
@.str.28 = private unnamed_addr constant [34 x i8] c"unable to reset attribute sharing\00", align 1
@.str.29 = private unnamed_addr constant [33 x i8] c"attribute changed sharing status\00", align 1
@.str.30 = private unnamed_addr constant [22 x i8] c"can't share attribute\00", align 1
@H5E_LINKCOUNT_g = external global i64, align 8
@.str.31 = private unnamed_addr constant [38 x i8] c"unable to adjust attribute link count\00", align 1
@H5E_CANTFREE_g = external global i64, align 8
@.str.32 = private unnamed_addr constant [52 x i8] c"unable to delete shared attribute in shared storage\00", align 1

; Function Attrs: nounwind uwtable
define i32 @H5O__attr_update_shared(ptr noundef %0, ptr noundef %1, ptr noundef %2, ptr noundef %3) #0 {
  %5 = alloca ptr, align 8
  %6 = alloca ptr, align 8
  %7 = alloca ptr, align 8
  %8 = alloca ptr, align 8
  %9 = alloca %struct.H5O_shared_t, align 8
  %10 = alloca i64, align 8
  %11 = alloca i32, align 4
  %12 = alloca i32, align 4
  %13 = alloca i8, align 1
  store ptr %0, ptr %5, align 8
  store ptr %1, ptr %6, align 8
  store ptr %2, ptr %7, align 8
  store ptr %3, ptr %8, align 8
  store i32 0, ptr %12, align 4
  store i8 0, ptr %13, align 1
  %14 = load ptr, ptr %7, align 8
  %15 = getelementptr inbounds %struct.H5A_t, ptr %14, i32 0, i32 0
  %16 = call i32 @H5O_set_shared(ptr noundef %9, ptr noundef %15)
  %17 = icmp slt i32 %16, 0
  br i1 %17, label %18, label %33

18:                                               ; preds = %4
  br label %19

19:                                               ; preds = %18
  br label %20

20:                                               ; preds = %19
  br label %21

21:                                               ; preds = %20
  %22 = load i64, ptr @H5E_ATTR_g, align 8
  %23 = load i64, ptr @H5E_CANTCOPY_g, align 8
  %24 = call i32 (ptr, ptr, i32, i64, i64, ptr, ...) @H5E_printf_stack(ptr noundef @.str, ptr noundef @__func__.H5O__attr_update_shared, i32 noundef 723, i64 noundef %22, i64 noundef %23, ptr noundef @.str.27)
  br label %25

25:                                               ; preds = %21
  store i8 1, ptr %13, align 1
  %26 = load i8, ptr %13, align 1
  %27 = trunc i8 %26 to i1
  %28 = zext i1 %27 to i8
  store i8 %28, ptr %13, align 1
  br label %29

29:                                               ; preds = %25
  br label %30

30:                                               ; preds = %29
  store i32 -1, ptr %12, align 4
  br label %184

31:                                               ; No predecessors!
  br label %32

32:                                               ; preds = %31
  br label %33

33:                                               ; preds = %32, %4
  %34 = load ptr, ptr %7, align 8
  %35 = call i32 @H5O_msg_reset_share(i32 noundef 12, ptr noundef %34)
  %36 = icmp slt i32 %35, 0
  br i1 %36, label %37, label %52

37:                                               ; preds = %33
  br label %38

38:                                               ; preds = %37
  br label %39

39:                                               ; preds = %38
  br label %40

40:                                               ; preds = %39
  %41 = load i64, ptr @H5E_OHDR_g, align 8
  %42 = load i64, ptr @H5E_CANTINIT_g, align 8
  %43 = call i32 (ptr, ptr, i32, i64, i64, ptr, ...) @H5E_printf_stack(ptr noundef @.str, ptr noundef @__func__.H5O__attr_update_shared, i32 noundef 727, i64 noundef %41, i64 noundef %42, ptr noundef @.str.28)
  br label %44

44:                                               ; preds = %40
  store i8 1, ptr %13, align 1
  %45 = load i8, ptr %13, align 1
  %46 = trunc i8 %45 to i1
  %47 = zext i1 %46 to i8
  store i8 %47, ptr %13, align 1
  br label %48

48:                                               ; preds = %44
  br label %49

49:                                               ; preds = %48
  store i32 -1, ptr %12, align 4
  br label %184

50:                                               ; No predecessors!
  br label %51

51:                                               ; preds = %50
  br label %52

52:                                               ; preds = %51, %33
  %53 = load ptr, ptr %5, align 8
  %54 = load ptr, ptr %6, align 8
  %55 = load ptr, ptr %7, align 8
  %56 = call i32 @H5SM_try_share(ptr noundef %53, ptr noundef %54, i32 noundef 0, i32 noundef 12, ptr noundef %55, ptr noundef null)
  store i32 %56, ptr %11, align 4
  %57 = icmp eq i32 %56, 0
  br i1 %57, label %58, label %73

58:                                               ; preds = %52
  br label %59

59:                                               ; preds = %58
  br label %60

60:                                               ; preds = %59
  br label %61

61:                                               ; preds = %60
  %62 = load i64, ptr @H5E_ATTR_g, align 8
  %63 = load i64, ptr @H5E_BADMESG_g, align 8
  %64 = call i32 (ptr, ptr, i32, i64, i64, ptr, ...) @H5E_printf_stack(ptr noundef @.str, ptr noundef @__func__.H5O__attr_update_shared, i32 noundef 732, i64 noundef %62, i64 noundef %63, ptr noundef @.str.29)
  br label %65

65:                                               ; preds = %61
  store i8 1, ptr %13, align 1
  %66 = load i8, ptr %13, align 1
  %67 = trunc i8 %66 to i1
  %68 = zext i1 %67 to i8
  store i8 %68, ptr %13, align 1
  br label %69

69:                                               ; preds = %65
  br label %70

70:                                               ; preds = %69
  store i32 -1, ptr %12, align 4
  br label %184

71:                                               ; No predecessors!
  br label %72

72:                                               ; preds = %71
  br label %92

73:                                               ; preds = %52
  %74 = load i32, ptr %11, align 4
  %75 = icmp slt i32 %74, 0
  br i1 %75, label %76, label %91

76:                                               ; preds = %73
  br label %77

77:                                               ; preds = %76
  br label %78

78:                                               ; preds = %77
  br label %79

79:                                               ; preds = %78
  %80 = load i64, ptr @H5E_ATTR_g, align 8
  %81 = load i64, ptr @H5E_BADMESG_g, align 8
  %82 = call i32 (ptr, ptr, i32, i64, i64, ptr, ...) @H5E_printf_stack(ptr noundef @.str, ptr noundef @__func__.H5O__attr_update_shared, i32 noundef 734, i64 noundef %80, i64 noundef %81, ptr noundef @.str.30)
  br label %83

83:                                               ; preds = %79
  store i8 1, ptr %13, align 1
  %84 = load i8, ptr %13, align 1
  %85 = trunc i8 %84 to i1
  %86 = zext i1 %85 to i8
  store i8 %86, ptr %13, align 1
  br label %87

87:                                               ; preds = %83
  br label %88

88:                                               ; preds = %87
  store i32 -1, ptr %12, align 4
  br label %184

89:                                               ; No predecessors!
  br label %90

90:                                               ; preds = %89
  br label %91

91:                                               ; preds = %90, %73
  br label %92

92:                                               ; preds = %91, %72
  %93 = load ptr, ptr %5, align 8
  %94 = load ptr, ptr %7, align 8
  %95 = getelementptr inbounds %struct.H5A_t, ptr %94, i32 0, i32 0
  %96 = call i32 @H5SM_get_refcount(ptr noundef %93, i32 noundef 12, ptr noundef %95, ptr noundef %10)
  %97 = icmp slt i32 %96, 0
  br i1 %97, label %98, label %113

98:                                               ; preds = %92
  br label %99

99:                                               ; preds = %98
  br label %100

100:                                              ; preds = %99
  br label %101

101:                                              ; preds = %100
  %102 = load i64, ptr @H5E_ATTR_g, align 8
  %103 = load i64, ptr @H5E_CANTGET_g, align 8
  %104 = call i32 (ptr, ptr, i32, i64, i64, ptr, ...) @H5E_printf_stack(ptr noundef @.str, ptr noundef @__func__.H5O__attr_update_shared, i32 noundef 738, i64 noundef %102, i64 noundef %103, ptr noundef @.str.12)
  br label %105

105:                                              ; preds = %101
  store i8 1, ptr %13, align 1
  %106 = load i8, ptr %13, align 1
  %107 = trunc i8 %106 to i1
  %108 = zext i1 %107 to i8
  store i8 %108, ptr %13, align 1
  br label %109

109:                                              ; preds = %105
  br label %110

110:                                              ; preds = %109
  store i32 -1, ptr %12, align 4
  br label %184

111:                                              ; No predecessors!
  br label %112

112:                                              ; preds = %111
  br label %113

113:                                              ; preds = %112, %92
  %114 = load i64, ptr %10, align 8
  %115 = icmp eq i64 %114, 1
  br i1 %115, label %116, label %138

116:                                              ; preds = %113
  %117 = load ptr, ptr %5, align 8
  %118 = load ptr, ptr %6, align 8
  %119 = load ptr, ptr %7, align 8
  %120 = call i32 @H5O__attr_link(ptr noundef %117, ptr noundef %118, ptr noundef %119)
  %121 = icmp slt i32 %120, 0
  br i1 %121, label %122, label %137

122:                                              ; preds = %116
  br label %123

123:                                              ; preds = %122
  br label %124

124:                                              ; preds = %123
  br label %125

125:                                              ; preds = %124
  %126 = load i64, ptr @H5E_ATTR_g, align 8
  %127 = load i64, ptr @H5E_LINKCOUNT_g, align 8
  %128 = call i32 (ptr, ptr, i32, i64, i64, ptr, ...) @H5E_printf_stack(ptr noundef @.str, ptr noundef @__func__.H5O__attr_update_shared, i32 noundef 752, i64 noundef %126, i64 noundef %127, ptr noundef @.str.31)
  br label %129

129:                                              ; preds = %125
  store i8 1, ptr %13, align 1
  %130 = load i8, ptr %13, align 1
  %131 = trunc i8 %130 to i1
  %132 = zext i1 %131 to i8
  store i8 %132, ptr %13, align 1
  br label %133

133:                                              ; preds = %129
  br label %134

134:                                              ; preds = %133
  store i32 -1, ptr %12, align 4
  br label %184

135:                                              ; No predecessors!
  br label %136

136:                                              ; preds = %135
  br label %137

137:                                              ; preds = %136, %116
  br label %138

138:                                              ; preds = %137, %113
  %139 = load ptr, ptr %5, align 8
  %140 = load ptr, ptr %6, align 8
  %141 = call i32 @H5SM_delete(ptr noundef %139, ptr noundef %140, ptr noundef %9)
  %142 = icmp slt i32 %141, 0
  br i1 %142, label %143, label %158

143:                                              ; preds = %138
  br label %144

144:                                              ; preds = %143
  br label %145

145:                                              ; preds = %144
  br label %146

146:                                              ; preds = %145
  %147 = load i64, ptr @H5E_ATTR_g, align 8
  %148 = load i64, ptr @H5E_CANTFREE_g, align 8
  %149 = call i32 (ptr, ptr, i32, i64, i64, ptr, ...) @H5E_printf_stack(ptr noundef @.str, ptr noundef @__func__.H5O__attr_update_shared, i32 noundef 756, i64 noundef %147, i64 noundef %148, ptr noundef @.str.32)
  br label %150

150:                                              ; preds = %146
  store i8 1, ptr %13, align 1
  %151 = load i8, ptr %13, align 1
  %152 = trunc i8 %151 to i1
  %153 = zext i1 %152 to i8
  store i8 %153, ptr %13, align 1
  br label %154

154:                                              ; preds = %150
  br label %155

155:                                              ; preds = %154
  store i32 -1, ptr %12, align 4
  br label %184

156:                                              ; No predecessors!
  br label %157

157:                                              ; preds = %156
  br label %158

158:                                              ; preds = %157, %138
  %159 = load ptr, ptr %8, align 8
  %160 = icmp ne ptr %159, null
  br i1 %160, label %161, label %183

161:                                              ; preds = %158
  %162 = load ptr, ptr %8, align 8
  %163 = load ptr, ptr %7, align 8
  %164 = getelementptr inbounds %struct.H5A_t, ptr %163, i32 0, i32 0
  %165 = call i32 @H5O_set_shared(ptr noundef %162, ptr noundef %164)
  %166 = icmp slt i32 %165, 0
  br i1 %166, label %167, label %182

167:                                              ; preds = %161
  br label %168

168:                                              ; preds = %167
  br label %169

169:                                              ; preds = %168
  br label %170

170:                                              ; preds = %169
  %171 = load i64, ptr @H5E_ATTR_g, align 8
  %172 = load i64, ptr @H5E_CANTCOPY_g, align 8
  %173 = call i32 (ptr, ptr, i32, i64, i64, ptr, ...) @H5E_printf_stack(ptr noundef @.str, ptr noundef @__func__.H5O__attr_update_shared, i32 noundef 761, i64 noundef %171, i64 noundef %172, ptr noundef @.str.27)
  br label %174

174:                                              ; preds = %170
  store i8 1, ptr %13, align 1
  %175 = load i8, ptr %13, align 1
  %176 = trunc i8 %175 to i1
  %177 = zext i1 %176 to i8
  store i8 %177, ptr %13, align 1
  br label %178

178:                                              ; preds = %174
  br label %179

179:                                              ; preds = %178
  store i32 -1, ptr %12, align 4
  br label %184

180:                                              ; No predecessors!
  br label %181

181:                                              ; preds = %180
  br label %182

182:                                              ; preds = %181, %161
  br label %183

183:                                              ; preds = %182, %158
  br label %184

184:                                              ; preds = %183, %179, %155, %134, %110, %88, %70, %49, %30
  %185 = load i32, ptr %12, align 4
  ret i32 %185
}