; Function Attrs: nounwind uwtable
define range(i32 -1, 1) i32 @H5O__attr_update_shared(ptr noundef %0, ptr noundef %1, ptr noundef %2, ptr noundef %3) local_unnamed_addr #0 {
  %5 = alloca %struct.H5O_shared_t, align 8
  %6 = alloca i64, align 8
  %7 = call i32 @H5O_set_shared(ptr noundef nonnull %5, ptr noundef %2) #9
  %8 = icmp slt i32 %7, 0
  br i1 %8, label %9, label %13

9:                                                ; preds = %4
  %10 = load i64, ptr @H5E_ATTR_g, align 8
  %11 = load i64, ptr @H5E_CANTCOPY_g, align 8
  %12 = call i32 (ptr, ptr, i32, i64, i64, ptr, ...) @H5E_printf_stack(ptr noundef nonnull @.str, ptr noundef nonnull @__func__.H5O__attr_update_shared, i32 noundef 723, i64 noundef %10, i64 noundef %11, ptr noundef nonnull @.str.27) #9
  br label %65

13:                                               ; preds = %4
  %14 = call i32 @H5O_msg_reset_share(i32 noundef 12, ptr noundef %2) #9
  %15 = icmp slt i32 %14, 0
  br i1 %15, label %16, label %20

16:                                               ; preds = %13
  %17 = load i64, ptr @H5E_OHDR_g, align 8
  %18 = load i64, ptr @H5E_CANTINIT_g, align 8
  %19 = call i32 (ptr, ptr, i32, i64, i64, ptr, ...) @H5E_printf_stack(ptr noundef nonnull @.str, ptr noundef nonnull @__func__.H5O__attr_update_shared, i32 noundef 727, i64 noundef %17, i64 noundef %18, ptr noundef nonnull @.str.28) #9
  br label %65

20:                                               ; preds = %13
  %21 = call i32 @H5SM_try_share(ptr noundef %0, ptr noundef %1, i32 noundef 0, i32 noundef 12, ptr noundef %2, ptr noundef null) #9
  %22 = icmp eq i32 %21, 0
  br i1 %22, label %23, label %27

23:                                               ; preds = %20
  %24 = load i64, ptr @H5E_ATTR_g, align 8
  %25 = load i64, ptr @H5E_BADMESG_g, align 8
  %26 = call i32 (ptr, ptr, i32, i64, i64, ptr, ...) @H5E_printf_stack(ptr noundef nonnull @.str, ptr noundef nonnull @__func__.H5O__attr_update_shared, i32 noundef 732, i64 noundef %24, i64 noundef %25, ptr noundef nonnull @.str.29) #9
  br label %65

27:                                               ; preds = %20
  %28 = icmp slt i32 %21, 0
  br i1 %28, label %29, label %33

29:                                               ; preds = %27
  %30 = load i64, ptr @H5E_ATTR_g, align 8
  %31 = load i64, ptr @H5E_BADMESG_g, align 8
  %32 = call i32 (ptr, ptr, i32, i64, i64, ptr, ...) @H5E_printf_stack(ptr noundef nonnull @.str, ptr noundef nonnull @__func__.H5O__attr_update_shared, i32 noundef 734, i64 noundef %30, i64 noundef %31, ptr noundef nonnull @.str.30) #9
  br label %65

33:                                               ; preds = %27
  %34 = call i32 @H5SM_get_refcount(ptr noundef %0, i32 noundef 12, ptr noundef %2, ptr noundef nonnull %6) #9
  %35 = icmp slt i32 %34, 0
  br i1 %35, label %36, label %40

36:                                               ; preds = %33
  %37 = load i64, ptr @H5E_ATTR_g, align 8
  %38 = load i64, ptr @H5E_CANTGET_g, align 8
  %39 = call i32 (ptr, ptr, i32, i64, i64, ptr, ...) @H5E_printf_stack(ptr noundef nonnull @.str, ptr noundef nonnull @__func__.H5O__attr_update_shared, i32 noundef 738, i64 noundef %37, i64 noundef %38, ptr noundef nonnull @.str.12) #9
  br label %65

40:                                               ; preds = %33
  %41 = load i64, ptr %6, align 8
  %42 = icmp eq i64 %41, 1
  br i1 %42, label %43, label %50

43:                                               ; preds = %40
  %44 = call i32 @H5O__attr_link(ptr noundef %0, ptr noundef %1, ptr noundef %2) #9
  %45 = icmp slt i32 %44, 0
  br i1 %45, label %46, label %50

46:                                               ; preds = %43
  %47 = load i64, ptr @H5E_ATTR_g, align 8
  %48 = load i64, ptr @H5E_LINKCOUNT_g, align 8
  %49 = call i32 (ptr, ptr, i32, i64, i64, ptr, ...) @H5E_printf_stack(ptr noundef nonnull @.str, ptr noundef nonnull @__func__.H5O__attr_update_shared, i32 noundef 752, i64 noundef %47, i64 noundef %48, ptr noundef nonnull @.str.31) #9
  br label %65

50:                                               ; preds = %43, %40
  %51 = call i32 @H5SM_delete(ptr noundef %0, ptr noundef %1, ptr noundef nonnull %5) #9
  %52 = icmp slt i32 %51, 0
  br i1 %52, label %53, label %57

53:                                               ; preds = %50
  %54 = load i64, ptr @H5E_ATTR_g, align 8
  %55 = load i64, ptr @H5E_CANTFREE_g, align 8
  %56 = call i32 (ptr, ptr, i32, i64, i64, ptr, ...) @H5E_printf_stack(ptr noundef nonnull @.str, ptr noundef nonnull @__func__.H5O__attr_update_shared, i32 noundef 756, i64 noundef %54, i64 noundef %55, ptr noundef nonnull @.str.32) #9
  br label %65

57:                                               ; preds = %50
  %.not = icmp eq ptr %3, null
  br i1 %.not, label %65, label %58

58:                                               ; preds = %57
  %59 = call i32 @H5O_set_shared(ptr noundef nonnull %3, ptr noundef %2) #9
  %60 = icmp slt i32 %59, 0
  br i1 %60, label %61, label %65

61:                                               ; preds = %58
  %62 = load i64, ptr @H5E_ATTR_g, align 8
  %63 = load i64, ptr @H5E_CANTCOPY_g, align 8
  %64 = call i32 (ptr, ptr, i32, i64, i64, ptr, ...) @H5E_printf_stack(ptr noundef nonnull @.str, ptr noundef nonnull @__func__.H5O__attr_update_shared, i32 noundef 761, i64 noundef %62, i64 noundef %63, ptr noundef nonnull @.str.27) #9
  br label %65

65:                                               ; preds = %57, %58, %61, %53, %46, %36, %29, %23, %16, %9
  %.0 = phi i32 [ -1, %9 ], [ -1, %16 ], [ -1, %23 ], [ -1, %29 ], [ -1, %36 ], [ -1, %46 ], [ -1, %53 ], [ -1, %61 ], [ 0, %58 ], [ 0, %57 ]
  ret i32 %.0
}